target datalayout = "e-m:e-p270:32:32-p271:32:32-p272:64:64-i64:64-i128:128-f80:128-n8:16:32:64-S128"
target triple = "x86_64-unknown-linux-gnu"

%class.btVector3 = type { [4 x float] }
%class.btKinematicCharacterController = type <{ %class.btCharacterControllerInterface, float, [4 x i8], ptr, ptr, float, float, float, float, float, float, float, float, float, float, float, float, float, %class.btVector3, %class.btVector3, %class.btVector3, %class.btVector3, %class.btVector3, float, %class.btVector3, %class.btQuaternion, %class.btQuaternion, %class.btAlignedObjectArray, i8, [3 x i8], %class.btVector3, float, float, i8, i8, i8, i8, float, %class.btVector3, %class.btVector3, i8, i8, i8, i8 }>
%class.btCharacterControllerInterface = type { %class.btActionInterface }
%class.btActionInterface = type { ptr }
%class.btQuaternion = type { %class.btQuadWord }
%class.btQuadWord = type { [4 x float] }
%class.btAlignedObjectArray = type <{ %class.btAlignedAllocator, [3 x i8], i32, i32, [4 x i8], ptr, i8, [7 x i8] }>
%class.btAlignedAllocator = type { i8 }

; Function Attrs: mustprogress nounwind uwtable
define linkonce_odr dso_local noundef float @_Z5btCosf(float noundef %x) #1 comdat {
entry:
  %x.addr = alloca float, align 4
  store float %x, ptr %x.addr, align 4
  %0 = load float, ptr %x.addr, align 4
  %call = call float @cosf(float noundef %0) #7
  ret float %call
}

; Function Attrs: mustprogress uwtable
define dso_local void @_ZN30btKinematicCharacterController11setMaxSlopeEf(ptr noundef nonnull align 8 dereferenceable(319) %this, float noundef %slopeRadians) #3 align 2 {
entry:
  %this.addr = alloca ptr, align 8
  %slopeRadians.addr = alloca float, align 4
  store ptr %this, ptr %this.addr, align 8
  store float %slopeRadians, ptr %slopeRadians.addr, align 4
  %this1 = load ptr, ptr %this.addr, align 8
  %0 = load float, ptr %slopeRadians.addr, align 4
  %m_maxSlopeRadians = getelementptr inbounds %class.btKinematicCharacterController, ptr %this1, i32 0, i32 12
  store float %0, ptr %m_maxSlopeRadians, align 4
  %1 = load float, ptr %slopeRadians.addr, align 4
  %call = call noundef float @_Z5btCosf(float noundef %1)
  %m_maxSlopeCosine = getelementptr inbounds %class.btKinematicCharacterController, ptr %this1, i32 0, i32 13
  store float %call, ptr %m_maxSlopeCosine, align 8
  ret void
}