; Function Attrs: mustprogress nofree nounwind willreturn memory(write) uwtable
define dso_local void @_ZN30btKinematicCharacterController11setMaxSlopeEf(ptr nocapture noundef nonnull writeonly align 8 dereferenceable(319) %this, float noundef %slopeRadians) local_unnamed_addr #3 align 2 {
entry:
  %m_maxSlopeRadians = getelementptr inbounds i8, ptr %this, i64 60
  store float %slopeRadians, ptr %m_maxSlopeRadians, align 4
  %call.i = tail call noundef float @cosf(float noundef %slopeRadians) #26
  %m_maxSlopeCosine = getelementptr inbounds i8, ptr %this, i64 64
  store float %call.i, ptr %m_maxSlopeCosine, align 8
  ret void
}